target datalayout = "e-m:e-p270:32:32-p271:32:32-p272:64:64-i64:64-i128:128-f80:128-n8:16:32:64-S128"
target triple = "x86_64-pc-linux-gnu"

%struct.jpeg_compress_struct = type { ptr, ptr, ptr, ptr, i32, i32, ptr, i32, i32, i32, i32, double, i32, i32, i32, ptr, [4 x ptr], [4 x ptr], [4 x ptr], [16 x i8], [16 x i8], [16 x i8], i32, ptr, i32, i32, i32, i32, i32, i32, i32, i32, i32, i8, i8, i8, i16, i16, i32, i32, i32, i32, i32, i32, i32, [4 x ptr], i32, i32, i32, [10 x i32], i32, i32, i32, i32, ptr, ptr, ptr, ptr, ptr, ptr, ptr, ptr, ptr, ptr, i32 }
%struct.jpeg_error_mgr = type { ptr, ptr, ptr, ptr, ptr, i32, %union.anon, i32, i64, ptr, i32, ptr, i32, i32 }
%union.anon = type { [8 x i32], [48 x i8] }
%struct.jpeg_component_info = type { i32, i32, i32, i32, i32, i32, i32, i32, i32, i32, i32, i32, i32, i32, i32, i32, i32, i32, i32, ptr, ptr }

; Function Attrs: nounwind uwtable
define internal void @per_scan_setup(ptr noundef %0) #0 {
  %2 = alloca ptr, align 8
  %3 = alloca i32, align 4
  %4 = alloca i32, align 4
  %5 = alloca i32, align 4
  %6 = alloca ptr, align 8
  %7 = alloca i64, align 8
  store ptr %0, ptr %2, align 8
  %8 = load ptr, ptr %2, align 8
  %9 = getelementptr inbounds %struct.jpeg_compress_struct, ptr %8, i32 0, i32 44
  %10 = load i32, ptr %9, align 4
  %11 = icmp eq i32 %10, 1
  br i1 %11, label %12, label %59

12:                                               ; preds = %1
  %13 = load ptr, ptr %2, align 8
  %14 = getelementptr inbounds %struct.jpeg_compress_struct, ptr %13, i32 0, i32 45
  %15 = getelementptr inbounds [4 x ptr], ptr %14, i64 0, i64 0
  %16 = load ptr, ptr %15, align 8
  store ptr %16, ptr %6, align 8
  %17 = load ptr, ptr %6, align 8
  %18 = getelementptr inbounds %struct.jpeg_component_info, ptr %17, i32 0, i32 7
  %19 = load i32, ptr %18, align 4
  %20 = load ptr, ptr %2, align 8
  %21 = getelementptr inbounds %struct.jpeg_compress_struct, ptr %20, i32 0, i32 46
  store i32 %19, ptr %21, align 8
  %22 = load ptr, ptr %6, align 8
  %23 = getelementptr inbounds %struct.jpeg_component_info, ptr %22, i32 0, i32 8
  %24 = load i32, ptr %23, align 8
  %25 = load ptr, ptr %2, align 8
  %26 = getelementptr inbounds %struct.jpeg_compress_struct, ptr %25, i32 0, i32 47
  store i32 %24, ptr %26, align 4
  %27 = load ptr, ptr %6, align 8
  %28 = getelementptr inbounds %struct.jpeg_component_info, ptr %27, i32 0, i32 13
  store i32 1, ptr %28, align 4
  %29 = load ptr, ptr %6, align 8
  %30 = getelementptr inbounds %struct.jpeg_component_info, ptr %29, i32 0, i32 14
  store i32 1, ptr %30, align 8
  %31 = load ptr, ptr %6, align 8
  %32 = getelementptr inbounds %struct.jpeg_component_info, ptr %31, i32 0, i32 15
  store i32 1, ptr %32, align 4
  %33 = load ptr, ptr %6, align 8
  %34 = getelementptr inbounds %struct.jpeg_component_info, ptr %33, i32 0, i32 16
  store i32 8, ptr %34, align 8
  %35 = load ptr, ptr %6, align 8
  %36 = getelementptr inbounds %struct.jpeg_component_info, ptr %35, i32 0, i32 17
  store i32 1, ptr %36, align 4
  %37 = load ptr, ptr %6, align 8
  %38 = getelementptr inbounds %struct.jpeg_component_info, ptr %37, i32 0, i32 8
  %39 = load i32, ptr %38, align 8
  %40 = load ptr, ptr %6, align 8
  %41 = getelementptr inbounds %struct.jpeg_component_info, ptr %40, i32 0, i32 3
  %42 = load i32, ptr %41, align 4
  %43 = urem i32 %39, %42
  store i32 %43, ptr %5, align 4
  %44 = load i32, ptr %5, align 4
  %45 = icmp eq i32 %44, 0
  br i1 %45, label %46, label %50

46:                                               ; preds = %12
  %47 = load ptr, ptr %6, align 8
  %48 = getelementptr inbounds %struct.jpeg_component_info, ptr %47, i32 0, i32 3
  %49 = load i32, ptr %48, align 4
  store i32 %49, ptr %5, align 4
  br label %50

50:                                               ; preds = %46, %12
  %51 = load i32, ptr %5, align 4
  %52 = load ptr, ptr %6, align 8
  %53 = getelementptr inbounds %struct.jpeg_component_info, ptr %52, i32 0, i32 18
  store i32 %51, ptr %53, align 8
  %54 = load ptr, ptr %2, align 8
  %55 = getelementptr inbounds %struct.jpeg_compress_struct, ptr %54, i32 0, i32 48
  store i32 1, ptr %55, align 8
  %56 = load ptr, ptr %2, align 8
  %57 = getelementptr inbounds %struct.jpeg_compress_struct, ptr %56, i32 0, i32 49
  %58 = getelementptr inbounds [10 x i32], ptr %57, i64 0, i64 0
  store i32 0, ptr %58, align 4
  br label %234

59:                                               ; preds = %1
  %60 = load ptr, ptr %2, align 8
  %61 = getelementptr inbounds %struct.jpeg_compress_struct, ptr %60, i32 0, i32 44
  %62 = load i32, ptr %61, align 4
  %63 = icmp sle i32 %62, 0
  br i1 %63, label %69, label %64

64:                                               ; preds = %59
  %65 = load ptr, ptr %2, align 8
  %66 = getelementptr inbounds %struct.jpeg_compress_struct, ptr %65, i32 0, i32 44
  %67 = load i32, ptr %66, align 4
  %68 = icmp sgt i32 %67, 4
  br i1 %68, label %69, label %93

69:                                               ; preds = %64, %59
  %70 = load ptr, ptr %2, align 8
  %71 = getelementptr inbounds %struct.jpeg_compress_struct, ptr %70, i32 0, i32 0
  %72 = load ptr, ptr %71, align 8
  %73 = getelementptr inbounds %struct.jpeg_error_mgr, ptr %72, i32 0, i32 5
  store i32 26, ptr %73, align 8
  %74 = load ptr, ptr %2, align 8
  %75 = getelementptr inbounds %struct.jpeg_compress_struct, ptr %74, i32 0, i32 44
  %76 = load i32, ptr %75, align 4
  %77 = load ptr, ptr %2, align 8
  %78 = getelementptr inbounds %struct.jpeg_compress_struct, ptr %77, i32 0, i32 0
  %79 = load ptr, ptr %78, align 8
  %80 = getelementptr inbounds %struct.jpeg_error_mgr, ptr %79, i32 0, i32 6
  %81 = getelementptr inbounds [8 x i32], ptr %80, i64 0, i64 0
  store i32 %76, ptr %81, align 4
  %82 = load ptr, ptr %2, align 8
  %83 = getelementptr inbounds %struct.jpeg_compress_struct, ptr %82, i32 0, i32 0
  %84 = load ptr, ptr %83, align 8
  %85 = getelementptr inbounds %struct.jpeg_error_mgr, ptr %84, i32 0, i32 6
  %86 = getelementptr inbounds [8 x i32], ptr %85, i64 0, i64 1
  store i32 4, ptr %86, align 4
  %87 = load ptr, ptr %2, align 8
  %88 = getelementptr inbounds %struct.jpeg_compress_struct, ptr %87, i32 0, i32 0
  %89 = load ptr, ptr %88, align 8
  %90 = getelementptr inbounds %struct.jpeg_error_mgr, ptr %89, i32 0, i32 0
  %91 = load ptr, ptr %90, align 8
  %92 = load ptr, ptr %2, align 8
  call void %91(ptr noundef %92)
  br label %93

93:                                               ; preds = %69, %64
  %94 = load ptr, ptr %2, align 8
  %95 = getelementptr inbounds %struct.jpeg_compress_struct, ptr %94, i32 0, i32 7
  %96 = load i32, ptr %95, align 8
  %97 = zext i32 %96 to i64
  %98 = load ptr, ptr %2, align 8
  %99 = getelementptr inbounds %struct.jpeg_compress_struct, ptr %98, i32 0, i32 41
  %100 = load i32, ptr %99, align 8
  %101 = mul nsw i32 %100, 8
  %102 = sext i32 %101 to i64
  %103 = call i64 @jDivRound(i64 noundef %97, i64 noundef %102)
  %104 = trunc i64 %103 to i32
  %105 = load ptr, ptr %2, align 8
  %106 = getelementptr inbounds %struct.jpeg_compress_struct, ptr %105, i32 0, i32 46
  store i32 %104, ptr %106, align 8
  %107 = load ptr, ptr %2, align 8
  %108 = getelementptr inbounds %struct.jpeg_compress_struct, ptr %107, i32 0, i32 8
  %109 = load i32, ptr %108, align 4
  %110 = zext i32 %109 to i64
  %111 = load ptr, ptr %2, align 8
  %112 = getelementptr inbounds %struct.jpeg_compress_struct, ptr %111, i32 0, i32 42
  %113 = load i32, ptr %112, align 4
  %114 = mul nsw i32 %113, 8
  %115 = sext i32 %114 to i64
  %116 = call i64 @jDivRound(i64 noundef %110, i64 noundef %115)
  %117 = trunc i64 %116 to i32
  %118 = load ptr, ptr %2, align 8
  %119 = getelementptr inbounds %struct.jpeg_compress_struct, ptr %118, i32 0, i32 47
  store i32 %117, ptr %119, align 4
  %120 = load ptr, ptr %2, align 8
  %121 = getelementptr inbounds %struct.jpeg_compress_struct, ptr %120, i32 0, i32 48
  store i32 0, ptr %121, align 8
  store i32 0, ptr %3, align 4
  br label %122

122:                                              ; preds = %230, %93
  %123 = load i32, ptr %3, align 4
  %124 = load ptr, ptr %2, align 8
  %125 = getelementptr inbounds %struct.jpeg_compress_struct, ptr %124, i32 0, i32 44
  %126 = load i32, ptr %125, align 4
  %127 = icmp slt i32 %123, %126
  br i1 %127, label %128, label %233

128:                                              ; preds = %122
  %129 = load ptr, ptr %2, align 8
  %130 = getelementptr inbounds %struct.jpeg_compress_struct, ptr %129, i32 0, i32 45
  %131 = load i32, ptr %3, align 4
  %132 = sext i32 %131 to i64
  %133 = getelementptr inbounds [4 x ptr], ptr %130, i64 0, i64 %132
  %134 = load ptr, ptr %133, align 8
  store ptr %134, ptr %6, align 8
  %135 = load ptr, ptr %6, align 8
  %136 = getelementptr inbounds %struct.jpeg_component_info, ptr %135, i32 0, i32 2
  %137 = load i32, ptr %136, align 8
  %138 = load ptr, ptr %6, align 8
  %139 = getelementptr inbounds %struct.jpeg_component_info, ptr %138, i32 0, i32 13
  store i32 %137, ptr %139, align 4
  %140 = load ptr, ptr %6, align 8
  %141 = getelementptr inbounds %struct.jpeg_component_info, ptr %140, i32 0, i32 3
  %142 = load i32, ptr %141, align 4
  %143 = load ptr, ptr %6, align 8
  %144 = getelementptr inbounds %struct.jpeg_component_info, ptr %143, i32 0, i32 14
  store i32 %142, ptr %144, align 8
  %145 = load ptr, ptr %6, align 8
  %146 = getelementptr inbounds %struct.jpeg_component_info, ptr %145, i32 0, i32 13
  %147 = load i32, ptr %146, align 4
  %148 = load ptr, ptr %6, align 8
  %149 = getelementptr inbounds %struct.jpeg_component_info, ptr %148, i32 0, i32 14
  %150 = load i32, ptr %149, align 8
  %151 = mul nsw i32 %147, %150
  %152 = load ptr, ptr %6, align 8
  %153 = getelementptr inbounds %struct.jpeg_component_info, ptr %152, i32 0, i32 15
  store i32 %151, ptr %153, align 4
  %154 = load ptr, ptr %6, align 8
  %155 = getelementptr inbounds %struct.jpeg_component_info, ptr %154, i32 0, i32 13
  %156 = load i32, ptr %155, align 4
  %157 = mul nsw i32 %156, 8
  %158 = load ptr, ptr %6, align 8
  %159 = getelementptr inbounds %struct.jpeg_component_info, ptr %158, i32 0, i32 16
  store i32 %157, ptr %159, align 8
  %160 = load ptr, ptr %6, align 8
  %161 = getelementptr inbounds %struct.jpeg_component_info, ptr %160, i32 0, i32 7
  %162 = load i32, ptr %161, align 4
  %163 = load ptr, ptr %6, align 8
  %164 = getelementptr inbounds %struct.jpeg_component_info, ptr %163, i32 0, i32 13
  %165 = load i32, ptr %164, align 4
  %166 = urem i32 %162, %165
  store i32 %166, ptr %5, align 4
  %167 = load i32, ptr %5, align 4
  %168 = icmp eq i32 %167, 0
  br i1 %168, label %169, label %173

169:                                              ; preds = %128
  %170 = load ptr, ptr %6, align 8
  %171 = getelementptr inbounds %struct.jpeg_component_info, ptr %170, i32 0, i32 13
  %172 = load i32, ptr %171, align 4
  store i32 %172, ptr %5, align 4
  br label %173

173:                                              ; preds = %169, %128
  %174 = load i32, ptr %5, align 4
  %175 = load ptr, ptr %6, align 8
  %176 = getelementptr inbounds %struct.jpeg_component_info, ptr %175, i32 0, i32 17
  store i32 %174, ptr %176, align 4
  %177 = load ptr, ptr %6, align 8
  %178 = getelementptr inbounds %struct.jpeg_component_info, ptr %177, i32 0, i32 8
  %179 = load i32, ptr %178, align 8
  %180 = load ptr, ptr %6, align 8
  %181 = getelementptr inbounds %struct.jpeg_component_info, ptr %180, i32 0, i32 14
  %182 = load i32, ptr %181, align 8
  %183 = urem i32 %179, %182
  store i32 %183, ptr %5, align 4
  %184 = load i32, ptr %5, align 4
  %185 = icmp eq i32 %184, 0
  br i1 %185, label %186, label %190

186:                                              ; preds = %173
  %187 = load ptr, ptr %6, align 8
  %188 = getelementptr inbounds %struct.jpeg_component_info, ptr %187, i32 0, i32 14
  %189 = load i32, ptr %188, align 8
  store i32 %189, ptr %5, align 4
  br label %190

190:                                              ; preds = %186, %173
  %191 = load i32, ptr %5, align 4
  %192 = load ptr, ptr %6, align 8
  %193 = getelementptr inbounds %struct.jpeg_component_info, ptr %192, i32 0, i32 18
  store i32 %191, ptr %193, align 8
  %194 = load ptr, ptr %6, align 8
  %195 = getelementptr inbounds %struct.jpeg_component_info, ptr %194, i32 0, i32 15
  %196 = load i32, ptr %195, align 4
  store i32 %196, ptr %4, align 4
  %197 = load ptr, ptr %2, align 8
  %198 = getelementptr inbounds %struct.jpeg_compress_struct, ptr %197, i32 0, i32 48
  %199 = load i32, ptr %198, align 8
  %200 = load i32, ptr %4, align 4
  %201 = add nsw i32 %199, %200
  %202 = icmp sgt i32 %201, 10
  br i1 %202, label %203, label %214

203:                                              ; preds = %190
  %204 = load ptr, ptr %2, align 8
  %205 = getelementptr inbounds %struct.jpeg_compress_struct, ptr %204, i32 0, i32 0
  %206 = load ptr, ptr %205, align 8
  %207 = getelementptr inbounds %struct.jpeg_error_mgr, ptr %206, i32 0, i32 5
  store i32 13, ptr %207, align 8
  %208 = load ptr, ptr %2, align 8
  %209 = getelementptr inbounds %struct.jpeg_compress_struct, ptr %208, i32 0, i32 0
  %210 = load ptr, ptr %209, align 8
  %211 = getelementptr inbounds %struct.jpeg_error_mgr, ptr %210, i32 0, i32 0
  %212 = load ptr, ptr %211, align 8
  %213 = load ptr, ptr %2, align 8
  call void %212(ptr noundef %213)
  br label %214

214:                                              ; preds = %203, %190
  br label %215

215:                                              ; preds = %219, %214
  %216 = load i32, ptr %4, align 4
  %217 = add nsw i32 %216, -1
  store i32 %217, ptr %4, align 4
  %218 = icmp sgt i32 %216, 0
  br i1 %218, label %219, label %229

219:                                              ; preds = %215
  %220 = load i32, ptr %3, align 4
  %221 = load ptr, ptr %2, align 8
  %222 = getelementptr inbounds %struct.jpeg_compress_struct, ptr %221, i32 0, i32 49
  %223 = load ptr, ptr %2, align 8
  %224 = getelementptr inbounds %struct.jpeg_compress_struct, ptr %223, i32 0, i32 48
  %225 = load i32, ptr %224, align 8
  %226 = add nsw i32 %225, 1
  store i32 %226, ptr %224, align 8
  %227 = sext i32 %225 to i64
  %228 = getelementptr inbounds [10 x i32], ptr %222, i64 0, i64 %227
  store i32 %220, ptr %228, align 4
  br label %215, !llvm.loop !21

229:                                              ; preds = %215
  br label %230

230:                                              ; preds = %229
  %231 = load i32, ptr %3, align 4
  %232 = add nsw i32 %231, 1
  store i32 %232, ptr %3, align 4
  br label %122, !llvm.loop !22

233:                                              ; preds = %122
  br label %234

234:                                              ; preds = %233, %50
  %235 = load ptr, ptr %2, align 8
  %236 = getelementptr inbounds %struct.jpeg_compress_struct, ptr %235, i32 0, i32 31
  %237 = load i32, ptr %236, align 4
  %238 = icmp sgt i32 %237, 0
  br i1 %238, label %239, label %259

239:                                              ; preds = %234
  %240 = load ptr, ptr %2, align 8
  %241 = getelementptr inbounds %struct.jpeg_compress_struct, ptr %240, i32 0, i32 31
  %242 = load i32, ptr %241, align 4
  %243 = sext i32 %242 to i64
  %244 = load ptr, ptr %2, align 8
  %245 = getelementptr inbounds %struct.jpeg_compress_struct, ptr %244, i32 0, i32 46
  %246 = load i32, ptr %245, align 8
  %247 = zext i32 %246 to i64
  %248 = mul nsw i64 %243, %247
  store i64 %248, ptr %7, align 8
  %249 = load i64, ptr %7, align 8
  %250 = icmp slt i64 %249, 65535
  br i1 %250, label %251, label %253

251:                                              ; preds = %239
  %252 = load i64, ptr %7, align 8
  br label %254

253:                                              ; preds = %239
  br label %254

254:                                              ; preds = %253, %251
  %255 = phi i64 [ %252, %251 ], [ 65535, %253 ]
  %256 = trunc i64 %255 to i32
  %257 = load ptr, ptr %2, align 8
  %258 = getelementptr inbounds %struct.jpeg_compress_struct, ptr %257, i32 0, i32 30
  store i32 %256, ptr %258, align 8
  br label %259

259:                                              ; preds = %254, %234
  ret void
}